target datalayout = "e-m:e-p270:32:32-p271:32:32-p272:64:64-i64:64-i128:128-f80:128-n8:16:32:64-S128"
target triple = "x86_64-pc-linux-gnu"

%struct.txt_db_st = type { i32, ptr, ptr, ptr, i64, i64, i64, ptr }
%struct.buf_mem_st = type { i64, ptr, i64, i64 }

; Function Attrs: inlinehint nounwind uwtable
define internal ptr @sk_OPENSSL_PSTRING_value(ptr noundef %0, i32 noundef %1) #3 {
  %3 = alloca ptr, align 8
  %4 = alloca i32, align 4
  store ptr %0, ptr %3, align 8, !tbaa !35
  store i32 %1, ptr %4, align 4, !tbaa !8
  %5 = load ptr, ptr %3, align 8, !tbaa !35
  %6 = load i32, ptr %4, align 4, !tbaa !8
  %7 = call ptr @OPENSSL_sk_value(ptr noundef %5, i32 noundef %6)
  ret ptr %7
}

; Function Attrs: inlinehint nounwind uwtable
define internal i32 @sk_OPENSSL_PSTRING_num(ptr noundef %0) #3 {
  %2 = alloca ptr, align 8
  store ptr %0, ptr %2, align 8, !tbaa !35
  %3 = load ptr, ptr %2, align 8, !tbaa !35
  %4 = call i32 @OPENSSL_sk_num(ptr noundef %3)
  ret i32 %4
}

; Function Attrs: nounwind uwtable
define i64 @TXT_DB_write(ptr noundef %0, ptr noundef %1) #0 {
  %3 = alloca ptr, align 8
  %4 = alloca ptr, align 8
  %5 = alloca i64, align 8
  %6 = alloca i64, align 8
  %7 = alloca i64, align 8
  %8 = alloca i64, align 8
  %9 = alloca i64, align 8
  %10 = alloca i64, align 8
  %11 = alloca ptr, align 8
  %12 = alloca ptr, align 8
  %13 = alloca ptr, align 8
  %14 = alloca ptr, align 8
  %15 = alloca i64, align 8
  store ptr %0, ptr %3, align 8, !tbaa !3
  store ptr %1, ptr %4, align 8, !tbaa !10
  call void @llvm.lifetime.start.p0(i64 8, ptr %5) #5
  call void @llvm.lifetime.start.p0(i64 8, ptr %6) #5
  call void @llvm.lifetime.start.p0(i64 8, ptr %7) #5
  call void @llvm.lifetime.start.p0(i64 8, ptr %8) #5
  call void @llvm.lifetime.start.p0(i64 8, ptr %9) #5
  call void @llvm.lifetime.start.p0(i64 8, ptr %10) #5
  store i64 0, ptr %10, align 8, !tbaa !39
  call void @llvm.lifetime.start.p0(i64 8, ptr %11) #5
  call void @llvm.lifetime.start.p0(i64 8, ptr %12) #5
  call void @llvm.lifetime.start.p0(i64 8, ptr %13) #5
  call void @llvm.lifetime.start.p0(i64 8, ptr %14) #5
  store ptr null, ptr %14, align 8, !tbaa !12
  call void @llvm.lifetime.start.p0(i64 8, ptr %15) #5
  store i64 -1, ptr %15, align 8, !tbaa !39
  %16 = call ptr @BUF_MEM_new()
  store ptr %16, ptr %14, align 8, !tbaa !12
  %17 = icmp eq ptr %16, null
  br i1 %17, label %18, label %19

18:                                               ; preds = %2
  br label %146

19:                                               ; preds = %2
  %20 = load ptr, ptr %4, align 8, !tbaa !10
  %21 = getelementptr inbounds nuw %struct.txt_db_st, ptr %20, i32 0, i32 1
  %22 = load ptr, ptr %21, align 8, !tbaa !22
  %23 = call i32 @sk_OPENSSL_PSTRING_num(ptr noundef %22)
  %24 = sext i32 %23 to i64
  store i64 %24, ptr %7, align 8, !tbaa !39
  %25 = load ptr, ptr %4, align 8, !tbaa !10
  %26 = getelementptr inbounds nuw %struct.txt_db_st, ptr %25, i32 0, i32 0
  %27 = load i32, ptr %26, align 8, !tbaa !14
  %28 = sext i32 %27 to i64
  store i64 %28, ptr %8, align 8, !tbaa !39
  store i64 0, ptr %5, align 8, !tbaa !39
  br label %29

29:                                               ; preds = %141, %19
  %30 = load i64, ptr %5, align 8, !tbaa !39
  %31 = load i64, ptr %7, align 8, !tbaa !39
  %32 = icmp slt i64 %30, %31
  br i1 %32, label %33, label %144

33:                                               ; preds = %29
  %34 = load ptr, ptr %4, align 8, !tbaa !10
  %35 = getelementptr inbounds nuw %struct.txt_db_st, ptr %34, i32 0, i32 1
  %36 = load ptr, ptr %35, align 8, !tbaa !22
  %37 = load i64, ptr %5, align 8, !tbaa !39
  %38 = trunc i64 %37 to i32
  %39 = call ptr @sk_OPENSSL_PSTRING_value(ptr noundef %36, i32 noundef %38)
  store ptr %39, ptr %12, align 8, !tbaa !33
  store i64 0, ptr %9, align 8, !tbaa !39
  store i64 0, ptr %6, align 8, !tbaa !39
  br label %40

40:                                               ; preds = %59, %33
  %41 = load i64, ptr %6, align 8, !tbaa !39
  %42 = load i64, ptr %8, align 8, !tbaa !39
  %43 = icmp slt i64 %41, %42
  br i1 %43, label %44, label %62

44:                                               ; preds = %40
  %45 = load ptr, ptr %12, align 8, !tbaa !33
  %46 = load i64, ptr %6, align 8, !tbaa !39
  %47 = getelementptr inbounds ptr, ptr %45, i64 %46
  %48 = load ptr, ptr %47, align 8, !tbaa !32
  %49 = icmp ne ptr %48, null
  br i1 %49, label %50, label %58

50:                                               ; preds = %44
  %51 = load ptr, ptr %12, align 8, !tbaa !33
  %52 = load i64, ptr %6, align 8, !tbaa !39
  %53 = getelementptr inbounds ptr, ptr %51, i64 %52
  %54 = load ptr, ptr %53, align 8, !tbaa !32
  %55 = call i64 @strlen(ptr noundef %54) #6
  %56 = load i64, ptr %9, align 8, !tbaa !39
  %57 = add i64 %56, %55
  store i64 %57, ptr %9, align 8, !tbaa !39
  br label %58

58:                                               ; preds = %50, %44
  br label %59

59:                                               ; preds = %58
  %60 = load i64, ptr %6, align 8, !tbaa !39
  %61 = add nsw i64 %60, 1
  store i64 %61, ptr %6, align 8, !tbaa !39
  br label %40, !llvm.loop !40

62:                                               ; preds = %40
  %63 = load ptr, ptr %14, align 8, !tbaa !12
  %64 = load i64, ptr %9, align 8, !tbaa !39
  %65 = mul nsw i64 %64, 2
  %66 = load i64, ptr %8, align 8, !tbaa !39
  %67 = add nsw i64 %65, %66
  %68 = trunc i64 %67 to i32
  %69 = sext i32 %68 to i64
  %70 = call i64 @BUF_MEM_grow_clean(ptr noundef %63, i64 noundef %69)
  %71 = icmp ne i64 %70, 0
  br i1 %71, label %73, label %72

72:                                               ; preds = %62
  br label %146

73:                                               ; preds = %62
  %74 = load ptr, ptr %14, align 8, !tbaa !12
  %75 = getelementptr inbounds nuw %struct.buf_mem_st, ptr %74, i32 0, i32 1
  %76 = load ptr, ptr %75, align 8, !tbaa !28
  store ptr %76, ptr %11, align 8, !tbaa !32
  store i64 0, ptr %6, align 8, !tbaa !39
  br label %77

77:                                               ; preds = %113, %73
  %78 = load i64, ptr %6, align 8, !tbaa !39
  %79 = load i64, ptr %8, align 8, !tbaa !39
  %80 = icmp slt i64 %78, %79
  br i1 %80, label %81, label %116

81:                                               ; preds = %77
  %82 = load ptr, ptr %12, align 8, !tbaa !33
  %83 = load i64, ptr %6, align 8, !tbaa !39
  %84 = getelementptr inbounds ptr, ptr %82, i64 %83
  %85 = load ptr, ptr %84, align 8, !tbaa !32
  store ptr %85, ptr %13, align 8, !tbaa !32
  %86 = load ptr, ptr %13, align 8, !tbaa !32
  %87 = icmp ne ptr %86, null
  br i1 %87, label %88, label %110

88:                                               ; preds = %81
  br label %89

89:                                               ; preds = %103, %88
  %90 = load ptr, ptr %13, align 8, !tbaa !32
  %91 = load i8, ptr %90, align 1, !tbaa !31
  %92 = sext i8 %91 to i32
  %93 = icmp eq i32 %92, 0
  br i1 %93, label %94, label %95

94:                                               ; preds = %89
  br label %109

95:                                               ; preds = %89
  %96 = load ptr, ptr %13, align 8, !tbaa !32
  %97 = load i8, ptr %96, align 1, !tbaa !31
  %98 = sext i8 %97 to i32
  %99 = icmp eq i32 %98, 9
  br i1 %99, label %100, label %103

100:                                              ; preds = %95
  %101 = load ptr, ptr %11, align 8, !tbaa !32
  %102 = getelementptr inbounds nuw i8, ptr %101, i32 1
  store ptr %102, ptr %11, align 8, !tbaa !32
  store i8 92, ptr %101, align 1, !tbaa !31
  br label %103

103:                                              ; preds = %100, %95
  %104 = load ptr, ptr %13, align 8, !tbaa !32
  %105 = getelementptr inbounds nuw i8, ptr %104, i32 1
  store ptr %105, ptr %13, align 8, !tbaa !32
  %106 = load i8, ptr %104, align 1, !tbaa !31
  %107 = load ptr, ptr %11, align 8, !tbaa !32
  %108 = getelementptr inbounds nuw i8, ptr %107, i32 1
  store ptr %108, ptr %11, align 8, !tbaa !32
  store i8 %106, ptr %107, align 1, !tbaa !31
  br label %89

109:                                              ; preds = %94
  br label %110

110:                                              ; preds = %109, %81
  %111 = load ptr, ptr %11, align 8, !tbaa !32
  %112 = getelementptr inbounds nuw i8, ptr %111, i32 1
  store ptr %112, ptr %11, align 8, !tbaa !32
  store i8 9, ptr %111, align 1, !tbaa !31
  br label %113

113:                                              ; preds = %110
  %114 = load i64, ptr %6, align 8, !tbaa !39
  %115 = add nsw i64 %114, 1
  store i64 %115, ptr %6, align 8, !tbaa !39
  br label %77, !llvm.loop !41

116:                                              ; preds = %77
  %117 = load ptr, ptr %11, align 8, !tbaa !32
  %118 = getelementptr inbounds i8, ptr %117, i64 -1
  store i8 10, ptr %118, align 1, !tbaa !31
  %119 = load ptr, ptr %11, align 8, !tbaa !32
  %120 = load ptr, ptr %14, align 8, !tbaa !12
  %121 = getelementptr inbounds nuw %struct.buf_mem_st, ptr %120, i32 0, i32 1
  %122 = load ptr, ptr %121, align 8, !tbaa !28
  %123 = ptrtoint ptr %119 to i64
  %124 = ptrtoint ptr %122 to i64
  %125 = sub i64 %123, %124
  store i64 %125, ptr %6, align 8, !tbaa !39
  %126 = load ptr, ptr %3, align 8, !tbaa !3
  %127 = load ptr, ptr %14, align 8, !tbaa !12
  %128 = getelementptr inbounds nuw %struct.buf_mem_st, ptr %127, i32 0, i32 1
  %129 = load ptr, ptr %128, align 8, !tbaa !28
  %130 = load i64, ptr %6, align 8, !tbaa !39
  %131 = trunc i64 %130 to i32
  %132 = call i32 @BIO_write(ptr noundef %126, ptr noundef %129, i32 noundef %131)
  %133 = sext i32 %132 to i64
  %134 = load i64, ptr %6, align 8, !tbaa !39
  %135 = icmp ne i64 %133, %134
  br i1 %135, label %136, label %137

136:                                              ; preds = %116
  br label %146

137:                                              ; preds = %116
  %138 = load i64, ptr %6, align 8, !tbaa !39
  %139 = load i64, ptr %10, align 8, !tbaa !39
  %140 = add nsw i64 %139, %138
  store i64 %140, ptr %10, align 8, !tbaa !39
  br label %141

141:                                              ; preds = %137
  %142 = load i64, ptr %5, align 8, !tbaa !39
  %143 = add nsw i64 %142, 1
  store i64 %143, ptr %5, align 8, !tbaa !39
  br label %29, !llvm.loop !42

144:                                              ; preds = %29
  %145 = load i64, ptr %10, align 8, !tbaa !39
  store i64 %145, ptr %15, align 8, !tbaa !39
  br label %146

146:                                              ; preds = %144, %136, %72, %18
  %147 = load ptr, ptr %14, align 8, !tbaa !12
  call void @BUF_MEM_free(ptr noundef %147)
  %148 = load i64, ptr %15, align 8, !tbaa !39
  call void @llvm.lifetime.end.p0(i64 8, ptr %15) #5
  call void @llvm.lifetime.end.p0(i64 8, ptr %14) #5
  call void @llvm.lifetime.end.p0(i64 8, ptr %13) #5
  call void @llvm.lifetime.end.p0(i64 8, ptr %12) #5
  call void @llvm.lifetime.end.p0(i64 8, ptr %11) #5
  call void @llvm.lifetime.end.p0(i64 8, ptr %10) #5
  call void @llvm.lifetime.end.p0(i64 8, ptr %9) #5
  call void @llvm.lifetime.end.p0(i64 8, ptr %8) #5
  call void @llvm.lifetime.end.p0(i64 8, ptr %7) #5
  call void @llvm.lifetime.end.p0(i64 8, ptr %6) #5
  call void @llvm.lifetime.end.p0(i64 8, ptr %5) #5
  ret i64 %148
}