; Function Attrs: nounwind uwtable
define i64 @TXT_DB_write(ptr noundef %0, ptr noundef readonly captures(none) %1) local_unnamed_addr #0 {
  %3 = tail call ptr @BUF_MEM_new() #5
  %4 = icmp eq ptr %3, null
  br i1 %4, label %.loopexit59, label %5

5:                                                ; preds = %2
  %6 = getelementptr inbounds nuw i8, ptr %1, i64 8
  %7 = load ptr, ptr %6, align 8, !tbaa !13
  %8 = tail call i32 @OPENSSL_sk_num(ptr noundef %7) #5
  %9 = sext i32 %8 to i64
  %10 = load i32, ptr %1, align 8, !tbaa !3
  %.fr103 = freeze i32 %10
  %11 = sext i32 %.fr103 to i64
  %12 = icmp sgt i32 %8, 0
  br i1 %12, label %.lr.ph71, label %.loopexit59

.lr.ph71:                                         ; preds = %5
  %13 = icmp sgt i32 %.fr103, 0
  %14 = getelementptr inbounds nuw i8, ptr %3, i64 8
  br i1 %13, label %.lr.ph.us.us, label %.lr.ph71.split.split

.lr.ph.us.us:                                     ; preds = %.lr.ph71, %19
  %.04369.us.us = phi i64 [ %21, %19 ], [ 0, %.lr.ph71 ]
  %.04568.us.us = phi i64 [ %20, %19 ], [ 0, %.lr.ph71 ]
  %15 = load ptr, ptr %6, align 8, !tbaa !13
  %16 = trunc i64 %.04369.us.us to i32
  %17 = tail call ptr @OPENSSL_sk_value(ptr noundef %15, i32 noundef %16) #5
  br label %34

.lr.ph65.us.us:                                   ; preds = %._crit_edge.us.us
  %18 = load ptr, ptr %14, align 8, !tbaa !21
  br label %22

19:                                               ; preds = %._crit_edge66.us.us
  %20 = add nsw i64 %49, %.04568.us.us
  %21 = add nuw nsw i64 %.04369.us.us, 1
  %exitcond117.not = icmp eq i64 %21, %9
  br i1 %exitcond117.not, label %.loopexit59, label %.lr.ph.us.us, !llvm.loop !30

22:                                               ; preds = %.loopexit.us.us, %.lr.ph65.us.us
  %.04463.us.us = phi ptr [ %18, %.lr.ph65.us.us ], [ %32, %.loopexit.us.us ]
  %.14962.us.us = phi i64 [ 0, %.lr.ph65.us.us ], [ %33, %.loopexit.us.us ]
  %23 = getelementptr inbounds nuw ptr, ptr %17, i64 %.14962.us.us
  %24 = load ptr, ptr %23, align 8, !tbaa !25
  %.not57.us.us = icmp eq ptr %24, null
  br i1 %.not57.us.us, label %.loopexit.us.us, label %.preheader.us.us

.preheader.us.us:                                 ; preds = %22, %28
  %.2.us.us = phi ptr [ %31, %28 ], [ %.04463.us.us, %22 ]
  %.042.us.us = phi ptr [ %30, %28 ], [ %24, %22 ]
  %25 = load i8, ptr %.042.us.us, align 1, !tbaa !24
  switch i8 %25, label %28 [
    i8 0, label %.loopexit.us.us
    i8 9, label %26
  ]

26:                                               ; preds = %.preheader.us.us
  %27 = getelementptr inbounds nuw i8, ptr %.2.us.us, i64 1
  store i8 92, ptr %.2.us.us, align 1, !tbaa !24
  %.pre = load i8, ptr %.042.us.us, align 1, !tbaa !24
  br label %28

28:                                               ; preds = %26, %.preheader.us.us
  %29 = phi i8 [ %.pre, %26 ], [ %25, %.preheader.us.us ]
  %.3.us.us = phi ptr [ %27, %26 ], [ %.2.us.us, %.preheader.us.us ]
  %30 = getelementptr inbounds nuw i8, ptr %.042.us.us, i64 1
  %31 = getelementptr inbounds nuw i8, ptr %.3.us.us, i64 1
  store i8 %29, ptr %.3.us.us, align 1, !tbaa !24
  br label %.preheader.us.us

.loopexit.us.us:                                  ; preds = %.preheader.us.us, %22
  %.1.us.us = phi ptr [ %.04463.us.us, %22 ], [ %.2.us.us, %.preheader.us.us ]
  %32 = getelementptr inbounds nuw i8, ptr %.1.us.us, i64 1
  store i8 9, ptr %.1.us.us, align 1, !tbaa !24
  %33 = add nuw nsw i64 %.14962.us.us, 1
  %exitcond116.not = icmp eq i64 %33, %11
  br i1 %exitcond116.not, label %._crit_edge66.us.us, label %22, !llvm.loop !31

34:                                               ; preds = %.lr.ph.us.us, %40
  %.04661.us.us = phi i64 [ 0, %.lr.ph.us.us ], [ %.147.us.us, %40 ]
  %.04860.us.us = phi i64 [ 0, %.lr.ph.us.us ], [ %41, %40 ]
  %35 = getelementptr inbounds nuw ptr, ptr %17, i64 %.04860.us.us
  %36 = load ptr, ptr %35, align 8, !tbaa !25
  %.not58.us.us = icmp eq ptr %36, null
  br i1 %.not58.us.us, label %40, label %37

37:                                               ; preds = %34
  %38 = tail call i64 @strlen(ptr noundef nonnull dereferenceable(1) %36) #6
  %39 = add i64 %38, %.04661.us.us
  br label %40

40:                                               ; preds = %37, %34
  %.147.us.us = phi i64 [ %39, %37 ], [ %.04661.us.us, %34 ]
  %41 = add nuw nsw i64 %.04860.us.us, 1
  %exitcond115.not = icmp eq i64 %41, %11
  br i1 %exitcond115.not, label %._crit_edge.us.us, label %34, !llvm.loop !32

._crit_edge.us.us:                                ; preds = %40
  %.046.tr.us.us = trunc i64 %.147.us.us to i32
  %42 = shl i32 %.046.tr.us.us, 1
  %43 = add i32 %42, %.fr103
  %44 = sext i32 %43 to i64
  %45 = tail call i64 @BUF_MEM_grow_clean(ptr noundef nonnull %3, i64 noundef %44) #5
  %.not.us.us = icmp eq i64 %45, 0
  br i1 %.not.us.us, label %.loopexit59, label %.lr.ph65.us.us

._crit_edge66.us.us:                              ; preds = %.loopexit.us.us
  store i8 10, ptr %.1.us.us, align 1, !tbaa !24
  %46 = load ptr, ptr %14, align 8, !tbaa !21
  %47 = ptrtoint ptr %32 to i64
  %48 = ptrtoint ptr %46 to i64
  %49 = sub i64 %47, %48
  %50 = trunc i64 %49 to i32
  %51 = tail call i32 @BIO_write(ptr noundef %0, ptr noundef %46, i32 noundef %50) #5
  %52 = sext i32 %51 to i64
  %.not56.us.us = icmp eq i64 %49, %52
  br i1 %.not56.us.us, label %19, label %.loopexit59

.lr.ph71.split.split:                             ; preds = %.lr.ph71, %67
  %.04369 = phi i64 [ %69, %67 ], [ 0, %.lr.ph71 ]
  %.04568 = phi i64 [ %68, %67 ], [ 0, %.lr.ph71 ]
  %53 = load ptr, ptr %6, align 8, !tbaa !13
  %54 = trunc i64 %.04369 to i32
  %55 = tail call ptr @OPENSSL_sk_value(ptr noundef %53, i32 noundef %54) #5
  %56 = tail call i64 @BUF_MEM_grow_clean(ptr noundef nonnull %3, i64 noundef %11) #5
  %.not = icmp eq i64 %56, 0
  br i1 %.not, label %.loopexit59, label %57

57:                                               ; preds = %.lr.ph71.split.split
  %58 = load ptr, ptr %14, align 8, !tbaa !21
  %59 = getelementptr inbounds i8, ptr %58, i64 -1
  store i8 10, ptr %59, align 1, !tbaa !24
  %60 = load ptr, ptr %14, align 8, !tbaa !21
  %61 = ptrtoint ptr %58 to i64
  %62 = ptrtoint ptr %60 to i64
  %63 = sub i64 %61, %62
  %64 = trunc i64 %63 to i32
  %65 = tail call i32 @BIO_write(ptr noundef %0, ptr noundef %60, i32 noundef %64) #5
  %66 = sext i32 %65 to i64
  %.not56 = icmp eq i64 %63, %66
  br i1 %.not56, label %67, label %.loopexit59

67:                                               ; preds = %57
  %68 = add nsw i64 %63, %.04568
  %69 = add nuw nsw i64 %.04369, 1
  %exitcond.not = icmp eq i64 %69, %9
  br i1 %exitcond.not, label %.loopexit59, label %.lr.ph71.split.split, !llvm.loop !30

.loopexit59:                                      ; preds = %.lr.ph71.split.split, %57, %67, %._crit_edge.us.us, %._crit_edge66.us.us, %19, %5, %2
  %.0 = phi i64 [ -1, %2 ], [ 0, %5 ], [ -1, %._crit_edge.us.us ], [ -1, %._crit_edge66.us.us ], [ %20, %19 ], [ -1, %.lr.ph71.split.split ], [ -1, %57 ], [ %68, %67 ]
  tail call void @BUF_MEM_free(ptr noundef %3) #5
  ret i64 %.0
}